target datalayout = "e-m:e-p270:32:32-p271:32:32-p272:64:64-i64:64-i128:128-f80:128-n8:16:32:64-S128"
target triple = "x86_64-pc-linux-gnu"

%struct.FT_MemoryRec_ = type { ptr, ptr, ptr, ptr }
%struct.FT_StreamRec_ = type { ptr, i64, i64, %union.FT_StreamDesc_, %union.FT_StreamDesc_, ptr, ptr, ptr, ptr, ptr }
%union.FT_StreamDesc_ = type { i64 }

; Function Attrs: nounwind uwtable
define hidden void @ft_mem_free(ptr noundef %0, ptr noundef %1) #0 {
  %3 = alloca ptr, align 8
  %4 = alloca ptr, align 8
  store ptr %0, ptr %3, align 8, !tbaa !185
  store ptr %1, ptr %4, align 8, !tbaa !41
  %5 = load ptr, ptr %4, align 8, !tbaa !41
  %6 = icmp ne ptr %5, null
  br i1 %6, label %7, label %13

7:                                                ; preds = %2
  %8 = load ptr, ptr %3, align 8, !tbaa !185
  %9 = getelementptr inbounds nuw %struct.FT_MemoryRec_, ptr %8, i32 0, i32 2
  %10 = load ptr, ptr %9, align 8, !tbaa !209
  %11 = load ptr, ptr %3, align 8, !tbaa !185
  %12 = load ptr, ptr %4, align 8, !tbaa !41
  call void %10(ptr noundef %11, ptr noundef %12)
  br label %13

13:                                               ; preds = %7, %2
  ret void
}

; Function Attrs: nounwind uwtable
define hidden ptr @ft_mem_qalloc(ptr noundef %0, i64 noundef %1, ptr noundef %2) #0 {
  %4 = alloca ptr, align 8
  %5 = alloca i64, align 8
  %6 = alloca ptr, align 8
  %7 = alloca i32, align 4
  %8 = alloca ptr, align 8
  store ptr %0, ptr %4, align 8, !tbaa !185
  store i64 %1, ptr %5, align 8, !tbaa !47
  store ptr %2, ptr %6, align 8, !tbaa !164
  call void @llvm.lifetime.start.p0(i64 4, ptr %7) #10
  store i32 0, ptr %7, align 4, !tbaa !8
  call void @llvm.lifetime.start.p0(i64 8, ptr %8) #10
  store ptr null, ptr %8, align 8, !tbaa !41
  %9 = load i64, ptr %5, align 8, !tbaa !47
  %10 = icmp sgt i64 %9, 0
  br i1 %10, label %11, label %22

11:                                               ; preds = %3
  %12 = load ptr, ptr %4, align 8, !tbaa !185
  %13 = getelementptr inbounds nuw %struct.FT_MemoryRec_, ptr %12, i32 0, i32 1
  %14 = load ptr, ptr %13, align 8, !tbaa !408
  %15 = load ptr, ptr %4, align 8, !tbaa !185
  %16 = load i64, ptr %5, align 8, !tbaa !47
  %17 = call ptr %14(ptr noundef %15, i64 noundef %16)
  store ptr %17, ptr %8, align 8, !tbaa !41
  %18 = load ptr, ptr %8, align 8, !tbaa !41
  %19 = icmp ne ptr %18, null
  br i1 %19, label %21, label %20

20:                                               ; preds = %11
  store i32 64, ptr %7, align 4, !tbaa !8
  br label %21

21:                                               ; preds = %20, %11
  br label %27

22:                                               ; preds = %3
  %23 = load i64, ptr %5, align 8, !tbaa !47
  %24 = icmp slt i64 %23, 0
  br i1 %24, label %25, label %26

25:                                               ; preds = %22
  store i32 6, ptr %7, align 4, !tbaa !8
  br label %26

26:                                               ; preds = %25, %22
  br label %27

27:                                               ; preds = %26, %21
  %28 = load i32, ptr %7, align 4, !tbaa !8
  %29 = load ptr, ptr %6, align 8, !tbaa !164
  store i32 %28, ptr %29, align 4, !tbaa !8
  %30 = load ptr, ptr %8, align 8, !tbaa !41
  call void @llvm.lifetime.end.p0(i64 8, ptr %8) #10
  call void @llvm.lifetime.end.p0(i64 4, ptr %7) #10
  ret ptr %30
}

; Function Attrs: nounwind uwtable
define hidden i32 @FT_Stream_EnterFrame(ptr noundef %0, i64 noundef %1) #0 {
  %3 = alloca i32, align 4
  %4 = alloca ptr, align 8
  %5 = alloca i64, align 8
  %6 = alloca i32, align 4
  %7 = alloca i64, align 8
  %8 = alloca ptr, align 8
  %9 = alloca i32, align 4
  store ptr %0, ptr %4, align 8, !tbaa !268
  store i64 %1, ptr %5, align 8, !tbaa !47
  call void @llvm.lifetime.start.p0(i64 4, ptr %6) #10
  store i32 0, ptr %6, align 4, !tbaa !8
  call void @llvm.lifetime.start.p0(i64 8, ptr %7) #10
  br label %10

10:                                               ; preds = %2
  br label %11

11:                                               ; preds = %10
  br label %12

12:                                               ; preds = %11
  br label %13

13:                                               ; preds = %12
  br label %14

14:                                               ; preds = %13
  br label %15

15:                                               ; preds = %14
  %16 = load ptr, ptr %4, align 8, !tbaa !268
  %17 = getelementptr inbounds nuw %struct.FT_StreamRec_, ptr %16, i32 0, i32 5
  %18 = load ptr, ptr %17, align 8, !tbaa !283
  %19 = icmp ne ptr %18, null
  br i1 %19, label %20, label %100

20:                                               ; preds = %15
  call void @llvm.lifetime.start.p0(i64 8, ptr %8) #10
  %21 = load ptr, ptr %4, align 8, !tbaa !268
  %22 = getelementptr inbounds nuw %struct.FT_StreamRec_, ptr %21, i32 0, i32 7
  %23 = load ptr, ptr %22, align 8, !tbaa !275
  store ptr %23, ptr %8, align 8, !tbaa !185
  %24 = load i64, ptr %5, align 8, !tbaa !47
  %25 = load ptr, ptr %4, align 8, !tbaa !268
  %26 = getelementptr inbounds nuw %struct.FT_StreamRec_, ptr %25, i32 0, i32 1
  %27 = load i64, ptr %26, align 8, !tbaa !280
  %28 = icmp ugt i64 %24, %27
  br i1 %28, label %29, label %33

29:                                               ; preds = %20
  br label %30

30:                                               ; preds = %29
  br label %31

31:                                               ; preds = %30
  br label %32

32:                                               ; preds = %31
  store i32 85, ptr %6, align 4, !tbaa !8
  store i32 8, ptr %9, align 4
  br label %97

33:                                               ; preds = %20
  %34 = load ptr, ptr %8, align 8, !tbaa !185
  %35 = load i64, ptr %5, align 8, !tbaa !47
  %36 = call ptr @ft_mem_qalloc(ptr noundef %34, i64 noundef %35, ptr noundef %6)
  %37 = load ptr, ptr %4, align 8, !tbaa !268
  %38 = getelementptr inbounds nuw %struct.FT_StreamRec_, ptr %37, i32 0, i32 0
  store ptr %36, ptr %38, align 8, !tbaa !279
  %39 = load i32, ptr %6, align 4, !tbaa !8
  %40 = icmp ne i32 %39, 0
  br i1 %40, label %41, label %42

41:                                               ; preds = %33
  store i32 8, ptr %9, align 4
  br label %97

42:                                               ; preds = %33
  %43 = load ptr, ptr %4, align 8, !tbaa !268
  %44 = getelementptr inbounds nuw %struct.FT_StreamRec_, ptr %43, i32 0, i32 5
  %45 = load ptr, ptr %44, align 8, !tbaa !283
  %46 = load ptr, ptr %4, align 8, !tbaa !268
  %47 = load ptr, ptr %4, align 8, !tbaa !268
  %48 = getelementptr inbounds nuw %struct.FT_StreamRec_, ptr %47, i32 0, i32 2
  %49 = load i64, ptr %48, align 8, !tbaa !281
  %50 = load ptr, ptr %4, align 8, !tbaa !268
  %51 = getelementptr inbounds nuw %struct.FT_StreamRec_, ptr %50, i32 0, i32 0
  %52 = load ptr, ptr %51, align 8, !tbaa !279
  %53 = load i64, ptr %5, align 8, !tbaa !47
  %54 = call i64 %45(ptr noundef %46, i64 noundef %49, ptr noundef %52, i64 noundef %53)
  store i64 %54, ptr %7, align 8, !tbaa !47
  %55 = load i64, ptr %7, align 8, !tbaa !47
  %56 = load i64, ptr %5, align 8, !tbaa !47
  %57 = icmp ult i64 %55, %56
  br i1 %57, label %58, label %71

58:                                               ; preds = %42
  br label %59

59:                                               ; preds = %58
  br label %60

60:                                               ; preds = %59
  br label %61

61:                                               ; preds = %60
  br label %62

62:                                               ; preds = %61
  %63 = load ptr, ptr %8, align 8, !tbaa !185
  %64 = load ptr, ptr %4, align 8, !tbaa !268
  %65 = getelementptr inbounds nuw %struct.FT_StreamRec_, ptr %64, i32 0, i32 0
  %66 = load ptr, ptr %65, align 8, !tbaa !279
  call void @ft_mem_free(ptr noundef %63, ptr noundef %66)
  %67 = load ptr, ptr %4, align 8, !tbaa !268
  %68 = getelementptr inbounds nuw %struct.FT_StreamRec_, ptr %67, i32 0, i32 0
  store ptr null, ptr %68, align 8, !tbaa !279
  br label %69

69:                                               ; preds = %62
  br label %70

70:                                               ; preds = %69
  store i32 85, ptr %6, align 4, !tbaa !8
  br label %71

71:                                               ; preds = %70, %42
  %72 = load ptr, ptr %4, align 8, !tbaa !268
  %73 = getelementptr inbounds nuw %struct.FT_StreamRec_, ptr %72, i32 0, i32 0
  %74 = load ptr, ptr %73, align 8, !tbaa !279
  %75 = load ptr, ptr %4, align 8, !tbaa !268
  %76 = getelementptr inbounds nuw %struct.FT_StreamRec_, ptr %75, i32 0, i32 8
  store ptr %74, ptr %76, align 8, !tbaa !282
  %77 = load ptr, ptr %4, align 8, !tbaa !268
  %78 = getelementptr inbounds nuw %struct.FT_StreamRec_, ptr %77, i32 0, i32 8
  %79 = load ptr, ptr %78, align 8, !tbaa !282
  %80 = icmp ne ptr %79, null
  br i1 %80, label %81, label %87

81:                                               ; preds = %71
  %82 = load ptr, ptr %4, align 8, !tbaa !268
  %83 = getelementptr inbounds nuw %struct.FT_StreamRec_, ptr %82, i32 0, i32 8
  %84 = load ptr, ptr %83, align 8, !tbaa !282
  %85 = load i64, ptr %5, align 8, !tbaa !47
  %86 = getelementptr inbounds nuw i8, ptr %84, i64 %85
  br label %88

87:                                               ; preds = %71
  br label %88

88:                                               ; preds = %87, %81
  %89 = phi ptr [ %86, %81 ], [ null, %87 ]
  %90 = load ptr, ptr %4, align 8, !tbaa !268
  %91 = getelementptr inbounds nuw %struct.FT_StreamRec_, ptr %90, i32 0, i32 9
  store ptr %89, ptr %91, align 8, !tbaa !668
  %92 = load i64, ptr %7, align 8, !tbaa !47
  %93 = load ptr, ptr %4, align 8, !tbaa !268
  %94 = getelementptr inbounds nuw %struct.FT_StreamRec_, ptr %93, i32 0, i32 2
  %95 = load i64, ptr %94, align 8, !tbaa !281
  %96 = add i64 %95, %92
  store i64 %96, ptr %94, align 8, !tbaa !281
  store i32 0, ptr %9, align 4
  br label %97

97:                                               ; preds = %41, %32, %88
  call void @llvm.lifetime.end.p0(i64 8, ptr %8) #10
  %98 = load i32, ptr %9, align 4
  switch i32 %98, label %147 [
    i32 0, label %99
    i32 8, label %145
  ]

99:                                               ; preds = %97
  br label %144

100:                                              ; preds = %15
  %101 = load ptr, ptr %4, align 8, !tbaa !268
  %102 = getelementptr inbounds nuw %struct.FT_StreamRec_, ptr %101, i32 0, i32 2
  %103 = load i64, ptr %102, align 8, !tbaa !281
  %104 = load ptr, ptr %4, align 8, !tbaa !268
  %105 = getelementptr inbounds nuw %struct.FT_StreamRec_, ptr %104, i32 0, i32 1
  %106 = load i64, ptr %105, align 8, !tbaa !280
  %107 = icmp uge i64 %103, %106
  br i1 %107, label %118, label %108

108:                                              ; preds = %100
  %109 = load ptr, ptr %4, align 8, !tbaa !268
  %110 = getelementptr inbounds nuw %struct.FT_StreamRec_, ptr %109, i32 0, i32 1
  %111 = load i64, ptr %110, align 8, !tbaa !280
  %112 = load ptr, ptr %4, align 8, !tbaa !268
  %113 = getelementptr inbounds nuw %struct.FT_StreamRec_, ptr %112, i32 0, i32 2
  %114 = load i64, ptr %113, align 8, !tbaa !281
  %115 = sub i64 %111, %114
  %116 = load i64, ptr %5, align 8, !tbaa !47
  %117 = icmp ult i64 %115, %116
  br i1 %117, label %118, label %122

118:                                              ; preds = %108, %100
  br label %119

119:                                              ; preds = %118
  br label %120

120:                                              ; preds = %119
  br label %121

121:                                              ; preds = %120
  store i32 85, ptr %6, align 4, !tbaa !8
  br label %145

122:                                              ; preds = %108
  %123 = load ptr, ptr %4, align 8, !tbaa !268
  %124 = getelementptr inbounds nuw %struct.FT_StreamRec_, ptr %123, i32 0, i32 0
  %125 = load ptr, ptr %124, align 8, !tbaa !279
  %126 = load ptr, ptr %4, align 8, !tbaa !268
  %127 = getelementptr inbounds nuw %struct.FT_StreamRec_, ptr %126, i32 0, i32 2
  %128 = load i64, ptr %127, align 8, !tbaa !281
  %129 = getelementptr inbounds nuw i8, ptr %125, i64 %128
  %130 = load ptr, ptr %4, align 8, !tbaa !268
  %131 = getelementptr inbounds nuw %struct.FT_StreamRec_, ptr %130, i32 0, i32 8
  store ptr %129, ptr %131, align 8, !tbaa !282
  %132 = load ptr, ptr %4, align 8, !tbaa !268
  %133 = getelementptr inbounds nuw %struct.FT_StreamRec_, ptr %132, i32 0, i32 8
  %134 = load ptr, ptr %133, align 8, !tbaa !282
  %135 = load i64, ptr %5, align 8, !tbaa !47
  %136 = getelementptr inbounds nuw i8, ptr %134, i64 %135
  %137 = load ptr, ptr %4, align 8, !tbaa !268
  %138 = getelementptr inbounds nuw %struct.FT_StreamRec_, ptr %137, i32 0, i32 9
  store ptr %136, ptr %138, align 8, !tbaa !668
  %139 = load i64, ptr %5, align 8, !tbaa !47
  %140 = load ptr, ptr %4, align 8, !tbaa !268
  %141 = getelementptr inbounds nuw %struct.FT_StreamRec_, ptr %140, i32 0, i32 2
  %142 = load i64, ptr %141, align 8, !tbaa !281
  %143 = add i64 %142, %139
  store i64 %143, ptr %141, align 8, !tbaa !281
  br label %144

144:                                              ; preds = %122, %99
  br label %145

145:                                              ; preds = %144, %97, %121
  %146 = load i32, ptr %6, align 4, !tbaa !8
  store i32 %146, ptr %3, align 4
  store i32 1, ptr %9, align 4
  br label %147

147:                                              ; preds = %145, %97
  call void @llvm.lifetime.end.p0(i64 8, ptr %7) #10
  call void @llvm.lifetime.end.p0(i64 4, ptr %6) #10
  %148 = load i32, ptr %3, align 4
  ret i32 %148
}

; Function Attrs: nounwind uwtable
define hidden i32 @FT_Stream_ExtractFrame(ptr noundef %0, i64 noundef %1, ptr noundef %2) #0 {
  %4 = alloca ptr, align 8
  %5 = alloca i64, align 8
  %6 = alloca ptr, align 8
  %7 = alloca i32, align 4
  store ptr %0, ptr %4, align 8, !tbaa !268
  store i64 %1, ptr %5, align 8, !tbaa !47
  store ptr %2, ptr %6, align 8, !tbaa !631
  call void @llvm.lifetime.start.p0(i64 4, ptr %7) #10
  %8 = load ptr, ptr %4, align 8, !tbaa !268
  %9 = load i64, ptr %5, align 8, !tbaa !47
  %10 = call i32 @FT_Stream_EnterFrame(ptr noundef %8, i64 noundef %9)
  store i32 %10, ptr %7, align 4, !tbaa !8
  %11 = load i32, ptr %7, align 4, !tbaa !8
  %12 = icmp ne i32 %11, 0
  br i1 %12, label %22, label %13

13:                                               ; preds = %3
  %14 = load ptr, ptr %4, align 8, !tbaa !268
  %15 = getelementptr inbounds nuw %struct.FT_StreamRec_, ptr %14, i32 0, i32 8
  %16 = load ptr, ptr %15, align 8, !tbaa !282
  %17 = load ptr, ptr %6, align 8, !tbaa !631
  store ptr %16, ptr %17, align 8, !tbaa !183
  %18 = load ptr, ptr %4, align 8, !tbaa !268
  %19 = getelementptr inbounds nuw %struct.FT_StreamRec_, ptr %18, i32 0, i32 8
  store ptr null, ptr %19, align 8, !tbaa !282
  %20 = load ptr, ptr %4, align 8, !tbaa !268
  %21 = getelementptr inbounds nuw %struct.FT_StreamRec_, ptr %20, i32 0, i32 9
  store ptr null, ptr %21, align 8, !tbaa !668
  br label %22

22:                                               ; preds = %13, %3
  %23 = load i32, ptr %7, align 4, !tbaa !8
  call void @llvm.lifetime.end.p0(i64 4, ptr %7) #10
  ret i32 %23
}