; Function Attrs: nounwind uwtable
define hidden range(i32 0, 86) i32 @FT_Stream_ExtractFrame(ptr noundef %0, i64 noundef %1, ptr noundef writeonly captures(none) %2) local_unnamed_addr #0 {
  %4 = getelementptr inbounds nuw i8, ptr %0, i64 40
  %5 = load ptr, ptr %4, align 8, !tbaa !302
  %.not.i = icmp eq ptr %5, null
  %6 = getelementptr inbounds nuw i8, ptr %0, i64 8
  %7 = load i64, ptr %6, align 8, !tbaa !249
  br i1 %.not.i, label %27, label %8

8:                                                ; preds = %3
  %9 = getelementptr inbounds nuw i8, ptr %0, i64 56
  %10 = load ptr, ptr %9, align 8, !tbaa !251
  %11 = icmp ugt i64 %1, %7
  br i1 %11, label %FT_Stream_EnterFrame.exit.thread, label %12

12:                                               ; preds = %8
  %13 = icmp sgt i64 %1, 0
  br i1 %13, label %14, label %18

14:                                               ; preds = %12
  %15 = getelementptr inbounds nuw i8, ptr %10, i64 8
  %16 = load ptr, ptr %15, align 8, !tbaa !179
  %17 = tail call ptr %16(ptr noundef %10, i64 noundef %1) #34
  %.not.i.i = icmp eq ptr %17, null
  br i1 %.not.i.i, label %ft_mem_qalloc.exit.i, label %.select.unfold50_crit_edge.i

.select.unfold50_crit_edge.i:                     ; preds = %14
  %.pre.i = load ptr, ptr %4, align 8, !tbaa !302
  br label %select.unfold50.i

18:                                               ; preds = %12
  %.not14.i.i = icmp eq i64 %1, 0
  br i1 %.not14.i.i, label %select.unfold50.i, label %ft_mem_qalloc.exit.i

ft_mem_qalloc.exit.i:                             ; preds = %18, %14
  %.08.i.i = phi i32 [ 6, %18 ], [ 64, %14 ]
  store ptr null, ptr %0, align 8, !tbaa !247
  br label %FT_Stream_EnterFrame.exit.thread

select.unfold50.i:                                ; preds = %18, %.select.unfold50_crit_edge.i
  %19 = phi ptr [ %.pre.i, %.select.unfold50_crit_edge.i ], [ %5, %18 ]
  %.0.i.ph.i = phi ptr [ %17, %.select.unfold50_crit_edge.i ], [ null, %18 ]
  store ptr %.0.i.ph.i, ptr %0, align 8, !tbaa !247
  %20 = getelementptr inbounds nuw i8, ptr %0, i64 16
  %21 = load i64, ptr %20, align 8, !tbaa !255
  %22 = tail call i64 %19(ptr noundef nonnull %0, i64 noundef %21, ptr noundef %.0.i.ph.i, i64 noundef %1) #34
  %.not = icmp ult i64 %22, %1
  %.pre56.i = load ptr, ptr %0, align 8, !tbaa !247
  br i1 %.not, label %23, label %FT_Stream_EnterFrame.exit

23:                                               ; preds = %select.unfold50.i
  %.not.i48.i = icmp eq ptr %.pre56.i, null
  br i1 %.not.i48.i, label %ft_mem_free.exit.i, label %24

24:                                               ; preds = %23
  %25 = getelementptr inbounds nuw i8, ptr %10, i64 16
  %26 = load ptr, ptr %25, align 8, !tbaa !61
  tail call void %26(ptr noundef %10, ptr noundef nonnull %.pre56.i) #34
  br label %ft_mem_free.exit.i

ft_mem_free.exit.i:                               ; preds = %24, %23
  store ptr null, ptr %0, align 8, !tbaa !247
  br label %FT_Stream_EnterFrame.exit

27:                                               ; preds = %3
  %28 = getelementptr inbounds nuw i8, ptr %0, i64 16
  %29 = load i64, ptr %28, align 8, !tbaa !255
  %.not44.i = icmp uge i64 %29, %7
  %30 = sub nuw i64 %7, %29
  %31 = icmp ult i64 %30, %1
  %or.cond.i = select i1 %.not44.i, i1 true, i1 %31
  br i1 %or.cond.i, label %FT_Stream_EnterFrame.exit.thread, label %FT_Stream_EnterFrame.exit.thread10

FT_Stream_EnterFrame.exit.thread10:               ; preds = %27
  %32 = load ptr, ptr %0, align 8, !tbaa !247
  %33 = getelementptr inbounds nuw i8, ptr %32, i64 %29
  %34 = add i64 %29, %1
  store i64 %34, ptr %28, align 8, !tbaa !255
  br label %41

FT_Stream_EnterFrame.exit:                        ; preds = %select.unfold50.i, %ft_mem_free.exit.i
  %35 = phi ptr [ null, %ft_mem_free.exit.i ], [ %.pre56.i, %select.unfold50.i ]
  %.0.i = phi i32 [ 85, %ft_mem_free.exit.i ], [ 0, %select.unfold50.i ]
  %36 = getelementptr inbounds nuw i8, ptr %0, i64 64
  store ptr %35, ptr %36, align 8, !tbaa !250
  %.not46.i = icmp eq ptr %35, null
  %37 = getelementptr inbounds nuw i8, ptr %35, i64 %1
  %spec.select.i = select i1 %.not46.i, ptr null, ptr %37
  %38 = getelementptr inbounds nuw i8, ptr %0, i64 72
  store ptr %spec.select.i, ptr %38, align 8, !tbaa !544
  %39 = load i64, ptr %20, align 8, !tbaa !255
  %40 = add i64 %39, %22
  store i64 %40, ptr %20, align 8, !tbaa !255
  br i1 %.not, label %FT_Stream_EnterFrame.exit.thread, label %41

41:                                               ; preds = %FT_Stream_EnterFrame.exit.thread10, %FT_Stream_EnterFrame.exit
  %42 = phi ptr [ %33, %FT_Stream_EnterFrame.exit.thread10 ], [ %35, %FT_Stream_EnterFrame.exit ]
  %43 = getelementptr inbounds nuw i8, ptr %0, i64 64
  store ptr %42, ptr %2, align 8, !tbaa !190
  tail call void @llvm.memset.p0.i64(ptr noundef nonnull align 8 dereferenceable(16) %43, i8 0, i64 16, i1 false)
  br label %FT_Stream_EnterFrame.exit.thread

FT_Stream_EnterFrame.exit.thread:                 ; preds = %27, %8, %ft_mem_qalloc.exit.i, %41, %FT_Stream_EnterFrame.exit
  %.1.i9 = phi i32 [ 0, %41 ], [ %.0.i, %FT_Stream_EnterFrame.exit ], [ 85, %27 ], [ 85, %8 ], [ %.08.i.i, %ft_mem_qalloc.exit.i ]
  ret i32 %.1.i9
}